EXPORTS 
	??_R0?AVFindPeaksBody@human_pose_estimation@@@8 	 DATA
	??_R0?AVParallelLoopBody@cv@@@8 	 DATA
	??_R0?AVbad_alloc@std@@@8 	 DATA
	??_R0?AVbad_array_new_length@std@@@8 	 DATA
	??_R0?AVexception@std@@@8 	 DATA
	??_R0?AVruntime_error@std@@@8 	 DATA
	?method_table@@3PAUPyMethodDef@@A 	 DATA
	?pose_extractor_module@@3UPyModuleDef@@A 	 DATA
	??$?BM@?$Point_@H@cv@@QEBA?AV?$Point_@M@1@XZ
	??$_Allocate@$0BA@U_Default_allocate_traits@std@@$0A@@std@@YAPEAX_K@Z
	??$_Allocate_manually_vector_aligned@U_Default_allocate_traits@std@@@std@@YAPEAX_K@Z
	??$_Construct_in_place@PEADAEBQEAD@std@@YAXAEAPEADAEBQEAD@Z
	??$_Copy_backward_memmove@PEAUTwoJointsConnection@human_pose_estimation@@PEAU12@@std@@YAPEAUTwoJointsConnection@human_pose_estimation@@PEAU12@00@Z
	??$_Copy_memmove@PEAHPEAH@std@@YAPEAHPEAH00@Z
	??$_Copy_memmove@PEAIPEAI@std@@YAPEAIPEAI00@Z
	??$_Deallocate@$0BA@$0A@@std@@YAXPEAX_K@Z
	??$_Destroy_in_place@PEAD@std@@YAXAEAPEAD@Z
	??$_Destroy_range@V?$allocator@H@std@@@std@@YAXPEAHQEAHAEAV?$allocator@H@0@@Z
	??$_Destroy_range@V?$allocator@I@std@@@std@@YAXPEAIQEAIAEAV?$allocator@I@0@@Z
	??$_Destroy_range@V?$allocator@U?$pair@HH@std@@@std@@@std@@YAXPEAU?$pair@HH@0@QEAU10@AEAV?$allocator@U?$pair@HH@std@@@0@@Z
	??$_Destroy_range@V?$allocator@UHumanPose@human_pose_estimation@@@std@@@std@@YAXPEAUHumanPose@human_pose_estimation@@QEAU12@AEAV?$allocator@UHumanPose@human_pose_estimation@@@0@@Z
	??$_Destroy_range@V?$allocator@UHumanPoseByPeaksIndices@human_pose_estimation@@@std@@@std@@YAXPEAUHumanPoseByPeaksIndices@human_pose_estimation@@QEAU12@AEAV?$allocator@UHumanPoseByPeaksIndices@human_pose_estimation@@@0@@Z
	??$_Destroy_range@V?$allocator@UPeak@human_pose_estimation@@@std@@@std@@YAXPEAUPeak@human_pose_estimation@@QEAU12@AEAV?$allocator@UPeak@human_pose_estimation@@@0@@Z
	??$_Destroy_range@V?$allocator@UTwoJointsConnection@human_pose_estimation@@@std@@@std@@YAXPEAUTwoJointsConnection@human_pose_estimation@@QEAU12@AEAV?$allocator@UTwoJointsConnection@human_pose_estimation@@@0@@Z
	??$_Destroy_range@V?$allocator@V?$Point3_@M@cv@@@std@@@std@@YAXPEAV?$Point3_@M@cv@@QEAV12@AEAV?$allocator@V?$Point3_@M@cv@@@0@@Z
	??$_Destroy_range@V?$allocator@V?$Point_@H@cv@@@std@@@std@@YAXPEAV?$Point_@H@cv@@QEAV12@AEAV?$allocator@V?$Point_@H@cv@@@0@@Z
	??$_Destroy_range@V?$allocator@V?$vector@UPeak@human_pose_estimation@@V?$allocator@UPeak@human_pose_estimation@@@std@@@std@@@std@@@std@@YAXPEAV?$vector@UPeak@human_pose_estimation@@V?$allocator@UPeak@human_pose_estimation@@@std@@@0@QEAV10@AEAV?$allocator@V?$vector@UPeak@human_pose_estimation@@V?$allocator@UPeak@human_pose_estimation@@@std@@@std@@@0@@Z
	??$_Destroy_range@V?$allocator@VMat@cv@@@std@@@std@@YAXPEAVMat@cv@@QEAV12@AEAV?$allocator@VMat@cv@@@0@@Z
	??$_Emplace_reallocate@AEBUHumanPose@human_pose_estimation@@@?$vector@UHumanPose@human_pose_estimation@@V?$allocator@UHumanPose@human_pose_estimation@@@std@@@std@@QEAAPEAUHumanPose@human_pose_estimation@@QEAU23@AEBU23@@Z
	??$_Emplace_reallocate@AEBUHumanPoseByPeaksIndices@human_pose_estimation@@@?$vector@UHumanPoseByPeaksIndices@human_pose_estimation@@V?$allocator@UHumanPoseByPeaksIndices@human_pose_estimation@@@std@@@std@@QEAAPEAUHumanPoseByPeaksIndices@human_pose_estimation@@QEAU23@AEBU23@@Z
	??$_Emplace_reallocate@UPeak@human_pose_estimation@@@?$vector@UPeak@human_pose_estimation@@V?$allocator@UPeak@human_pose_estimation@@@std@@@std@@QEAAPEAUPeak@human_pose_estimation@@QEAU23@$$QEAU23@@Z
	??$_Emplace_reallocate@UTwoJointsConnection@human_pose_estimation@@@?$vector@UTwoJointsConnection@human_pose_estimation@@V?$allocator@UTwoJointsConnection@human_pose_estimation@@@std@@@std@@QEAAPEAUTwoJointsConnection@human_pose_estimation@@QEAU23@$$QEAU23@@Z
	??$_Emplace_reallocate@V?$Point_@H@cv@@@?$vector@V?$Point_@H@cv@@V?$allocator@V?$Point_@H@cv@@@std@@@std@@QEAAPEAV?$Point_@H@cv@@QEAV23@$$QEAV23@@Z
	??$_Insert_range@PEBUPeak@human_pose_estimation@@@?$vector@UPeak@human_pose_estimation@@V?$allocator@UPeak@human_pose_estimation@@@std@@@std@@AEAAXV?$_Vector_const_iterator@V?$_Vector_val@U?$_Simple_types@UPeak@human_pose_estimation@@@std@@@std@@@1@PEBUPeak@human_pose_estimation@@1Uforward_iterator_tag@1@@Z
	??$_Move_backward_unchecked@PEAUPeak@human_pose_estimation@@PEAU12@@std@@YAPEAUPeak@human_pose_estimation@@PEAU12@00@Z
	??$_Move_backward_unchecked@PEAUTwoJointsConnection@human_pose_estimation@@PEAU12@@std@@YAPEAUTwoJointsConnection@human_pose_estimation@@PEAU12@00@Z
	??$_Move_backward_unchecked@PEAV?$Point_@H@cv@@PEAV12@@std@@YAPEAV?$Point_@H@cv@@PEAV12@00@Z
	??$_Move_unchecked@PEAIPEAI@std@@YAPEAIPEAI00@Z
	??$_Move_unchecked@PEAUPeak@human_pose_estimation@@PEAU12@@std@@YAPEAUPeak@human_pose_estimation@@PEAU12@00@Z
	??$_Pocma@V?$allocator@UHumanPoseByPeaksIndices@human_pose_estimation@@@std@@@std@@YAXAEAV?$allocator@UHumanPoseByPeaksIndices@human_pose_estimation@@@0@0@Z
	??$_Unfancy_maybe_null@I@std@@YAPEAIPEAI@Z
	??$_Uninitialized_copy@PEAHV?$allocator@H@std@@@std@@YAPEAHQEAH0PEAHAEAV?$allocator@H@0@@Z
	??$_Uninitialized_copy@PEAV?$Point3_@M@cv@@V?$allocator@V?$Point3_@M@cv@@@std@@@std@@YAPEAV?$Point3_@M@cv@@QEAV12@0PEAV12@AEAV?$allocator@V?$Point3_@M@cv@@@0@@Z
	??$_Uninitialized_copy@PEBU?$pair@HH@std@@V?$allocator@U?$pair@HH@std@@@2@@std@@YAPEAU?$pair@HH@0@QEBU10@0PEAU10@AEAV?$allocator@U?$pair@HH@std@@@0@@Z
	??$_Uninitialized_copy@PEBUPeak@human_pose_estimation@@V?$allocator@UPeak@human_pose_estimation@@@std@@@std@@YAPEAUPeak@human_pose_estimation@@QEBU12@0PEAU12@AEAV?$allocator@UPeak@human_pose_estimation@@@0@@Z
	??$_Uninitialized_fill_n@V?$allocator@H@std@@@std@@YAPEAHPEAH_KAEBHAEAV?$allocator@H@0@@Z
	??$_Uninitialized_fill_n@V?$allocator@I@std@@@std@@YAPEAIPEAI_KAEBIAEAV?$allocator@I@0@@Z
	??$_Uninitialized_fill_n@V?$allocator@UHumanPoseByPeaksIndices@human_pose_estimation@@@std@@@std@@YAPEAUHumanPoseByPeaksIndices@human_pose_estimation@@PEAU12@_KAEBU12@AEAV?$allocator@UHumanPoseByPeaksIndices@human_pose_estimation@@@0@@Z
	??$_Uninitialized_fill_n@V?$allocator@V?$Point3_@M@cv@@@std@@@std@@YAPEAV?$Point3_@M@cv@@PEAV12@_KAEBV12@AEAV?$allocator@V?$Point3_@M@cv@@@0@@Z
	??$_Uninitialized_move@PEAUHumanPose@human_pose_estimation@@V?$allocator@UHumanPose@human_pose_estimation@@@std@@@std@@YAPEAUHumanPose@human_pose_estimation@@QEAU12@0PEAU12@AEAV?$allocator@UHumanPose@human_pose_estimation@@@0@@Z
	??$_Uninitialized_move@PEAUHumanPoseByPeaksIndices@human_pose_estimation@@V?$allocator@UHumanPoseByPeaksIndices@human_pose_estimation@@@std@@@std@@YAPEAUHumanPoseByPeaksIndices@human_pose_estimation@@QEAU12@0PEAU12@AEAV?$allocator@UHumanPoseByPeaksIndices@human_pose_estimation@@@0@@Z
	??$_Uninitialized_move@PEAUPeak@human_pose_estimation@@V?$allocator@UPeak@human_pose_estimation@@@std@@@std@@YAPEAUPeak@human_pose_estimation@@QEAU12@0PEAU12@AEAV?$allocator@UPeak@human_pose_estimation@@@0@@Z
	??$_Uninitialized_move@PEAUTwoJointsConnection@human_pose_estimation@@V?$allocator@UTwoJointsConnection@human_pose_estimation@@@std@@@std@@YAPEAUTwoJointsConnection@human_pose_estimation@@QEAU12@0PEAU12@AEAV?$allocator@UTwoJointsConnection@human_pose_estimation@@@0@@Z
	??$_Uninitialized_move@PEAV?$Point_@H@cv@@V?$allocator@V?$Point_@H@cv@@@std@@@std@@YAPEAV?$Point_@H@cv@@QEAV12@0PEAV12@AEAV?$allocator@V?$Point_@H@cv@@@0@@Z
	??$_Uninitialized_value_construct_n@V?$allocator@V?$vector@UPeak@human_pose_estimation@@V?$allocator@UPeak@human_pose_estimation@@@std@@@std@@@std@@@std@@YAPEAV?$vector@UPeak@human_pose_estimation@@V?$allocator@UPeak@human_pose_estimation@@@std@@@0@PEAV10@_KAEAV?$allocator@V?$vector@UPeak@human_pose_estimation@@V?$allocator@UPeak@human_pose_estimation@@@std@@@std@@@0@@Z
	??$_Uninitialized_value_construct_n@V?$allocator@VMat@cv@@@std@@@std@@YAPEAVMat@cv@@PEAV12@_KAEAV?$allocator@VMat@cv@@@0@@Z
	??$at@M@Mat@cv@@QEAAAEAMV?$Point_@H@1@@Z
	??$at@M@Mat@cv@@QEBAAEBMV?$Point_@H@1@@Z
	??$construct@UHumanPose@human_pose_estimation@@AEBU12@@?$_Default_allocator_traits@V?$allocator@UHumanPose@human_pose_estimation@@@std@@@std@@SAXAEAV?$allocator@UHumanPose@human_pose_estimation@@@1@QEAUHumanPose@human_pose_estimation@@AEBU34@@Z
	??$construct@UHumanPoseByPeaksIndices@human_pose_estimation@@AEBU12@@?$_Default_allocator_traits@V?$allocator@UHumanPoseByPeaksIndices@human_pose_estimation@@@std@@@std@@SAXAEAV?$allocator@UHumanPoseByPeaksIndices@human_pose_estimation@@@1@QEAUHumanPoseByPeaksIndices@human_pose_estimation@@AEBU34@@Z
	??$iter_swap@PEAUTwoJointsConnection@human_pose_estimation@@PEAU12@@std@@YAXPEAUTwoJointsConnection@human_pose_estimation@@0@Z
	??$iter_swap@PEAV?$Point_@H@cv@@PEAV12@@std@@YAXPEAV?$Point_@H@cv@@0@Z
	??$ptr@M@Mat@cv@@QEBAPEBMH@Z
	??$sqrt@HX@@YANH@Z
	??$swap@UTwoJointsConnection@human_pose_estimation@@X@std@@YAXAEAUTwoJointsConnection@human_pose_estimation@@0@Z
	??$swap@V?$Point_@H@cv@@X@std@@YAXAEAV?$Point_@H@cv@@0@Z
	??0?$basic_string@DU?$char_traits@D@std@@V?$allocator@D@2@@std@@QEAA@QEBD@Z
	??0HumanPose@human_pose_estimation@@QEAA@AEBV?$vector@V?$Point3_@M@cv@@V?$allocator@V?$Point3_@M@cv@@@std@@@std@@AEBM@Z
	??0HumanPoseByPeaksIndices@human_pose_estimation@@QEAA@H@Z
	??0Mat@cv@@QEAA@AEBV01@@Z
	??0Peak@human_pose_estimation@@QEAA@HAEBV?$Point_@M@cv@@M@Z
	??0TwoJointsConnection@human_pose_estimation@@QEAA@HHM@Z
	??0bad_alloc@std@@QEAA@AEBV01@@Z
	??0bad_array_new_length@std@@QEAA@AEBV01@@Z
	??0bad_array_new_length@std@@QEAA@XZ
	??0exception@std@@QEAA@AEBV01@@Z
	??0runtime_error@std@@QEAA@AEBV01@@Z
	??0runtime_error@std@@QEAA@PEBD@Z
	??1?$_Tidy_guard@V?$vector@UHumanPoseByPeaksIndices@human_pose_estimation@@V?$allocator@UHumanPoseByPeaksIndices@human_pose_estimation@@@std@@@std@@@std@@QEAA@XZ
	??1?$_Uninitialized_backout_al@V?$allocator@UHumanPoseByPeaksIndices@human_pose_estimation@@@std@@@std@@QEAA@XZ
	??1?$_Vb_val@V?$allocator@_N@std@@@std@@QEAA@XZ
	??1?$basic_string@DU?$char_traits@D@std@@V?$allocator@D@2@@std@@QEAA@XZ
	??1?$pair@VMat@cv@@V12@@std@@QEAA@XZ
	??1?$vector@HV?$allocator@H@std@@@std@@QEAA@XZ
	??1?$vector@U?$pair@HH@std@@V?$allocator@U?$pair@HH@std@@@2@@std@@QEAA@XZ
	??1?$vector@UHumanPose@human_pose_estimation@@V?$allocator@UHumanPose@human_pose_estimation@@@std@@@std@@QEAA@XZ
	??1?$vector@UHumanPoseByPeaksIndices@human_pose_estimation@@V?$allocator@UHumanPoseByPeaksIndices@human_pose_estimation@@@std@@@std@@QEAA@XZ
	??1?$vector@UPeak@human_pose_estimation@@V?$allocator@UPeak@human_pose_estimation@@@std@@@std@@QEAA@XZ
	??1?$vector@UTwoJointsConnection@human_pose_estimation@@V?$allocator@UTwoJointsConnection@human_pose_estimation@@@std@@@std@@QEAA@XZ
	??1?$vector@V?$Point3_@M@cv@@V?$allocator@V?$Point3_@M@cv@@@std@@@std@@QEAA@XZ
	??1?$vector@V?$Point_@H@cv@@V?$allocator@V?$Point_@H@cv@@@std@@@std@@QEAA@XZ
	??1?$vector@V?$vector@UPeak@human_pose_estimation@@V?$allocator@UPeak@human_pose_estimation@@@std@@@std@@V?$allocator@V?$vector@UPeak@human_pose_estimation@@V?$allocator@UPeak@human_pose_estimation@@@std@@@std@@@2@@std@@QEAA@XZ
	??1?$vector@VMat@cv@@V?$allocator@VMat@cv@@@std@@@std@@QEAA@XZ
	??1?$vector@_NV?$allocator@_N@std@@@std@@QEAA@XZ
	??1FindPeaksBody@human_pose_estimation@@UEAA@XZ
	??1HumanPose@human_pose_estimation@@QEAA@XZ
	??1HumanPoseByPeaksIndices@human_pose_estimation@@QEAA@XZ
	??1Mat@cv@@QEAA@XZ
	??1bad_array_new_length@std@@UEAA@XZ
	??1exception@std@@UEAA@XZ
	??1runtime_error@std@@UEAA@XZ
	??RFindPeaksBody@human_pose_estimation@@UEBAXAEBVRange@cv@@@Z
	?_Buy_raw@?$vector@V?$Point3_@M@cv@@V?$allocator@V?$Point3_@M@cv@@@std@@@std@@AEAAX_K@Z
	?_Change_array@?$vector@UPeak@human_pose_estimation@@V?$allocator@UPeak@human_pose_estimation@@@std@@@std@@AEAAXQEAUPeak@human_pose_estimation@@_K1@Z
	?_Destroy@?$vector@UHumanPose@human_pose_estimation@@V?$allocator@UHumanPose@human_pose_estimation@@@std@@@std@@AEAAXPEAUHumanPose@human_pose_estimation@@0@Z
	?_Destroy@?$vector@UHumanPoseByPeaksIndices@human_pose_estimation@@V?$allocator@UHumanPoseByPeaksIndices@human_pose_estimation@@@std@@@std@@AEAAXPEAUHumanPoseByPeaksIndices@human_pose_estimation@@0@Z
	?_Getal@?$vector@UPeak@human_pose_estimation@@V?$allocator@UPeak@human_pose_estimation@@@std@@@std@@AEAAAEAV?$allocator@UPeak@human_pose_estimation@@@2@XZ
	?_Throw_bad_array_new_length@std@@YAXXZ
	?_Tidy@?$vector@UHumanPoseByPeaksIndices@human_pose_estimation@@V?$allocator@UHumanPoseByPeaksIndices@human_pose_estimation@@@std@@@std@@AEAAXXZ
	?_Tidy@?$vector@V?$Point3_@M@cv@@V?$allocator@V?$Point3_@M@cv@@@std@@@std@@AEAAXXZ
	?_Tidy@?$vector@V?$vector@UPeak@human_pose_estimation@@V?$allocator@UPeak@human_pose_estimation@@@std@@@std@@V?$allocator@V?$vector@UPeak@human_pose_estimation@@V?$allocator@UPeak@human_pose_estimation@@@std@@@std@@@2@@std@@AEAAXXZ
	?_Tidy@?$vector@VMat@cv@@V?$allocator@VMat@cv@@@std@@@std@@AEAAXXZ
	?_Umove@?$vector@UPeak@human_pose_estimation@@V?$allocator@UPeak@human_pose_estimation@@@std@@@std@@AEAAPEAUPeak@human_pose_estimation@@PEAU34@00@Z
	?_Umove_if_noexcept@?$vector@UPeak@human_pose_estimation@@V?$allocator@UPeak@human_pose_estimation@@@std@@@std@@AEAAXPEAUPeak@human_pose_estimation@@00@Z
	?_Xlen@?$basic_string@DU?$char_traits@D@std@@V?$allocator@D@2@@std@@CAXXZ
	?_Xlen@?$vector@_NV?$allocator@_N@std@@@std@@QEBAXXZ
	?_Xlength@?$vector@HV?$allocator@H@std@@@std@@CAXXZ
	?_Xlength@?$vector@UHumanPose@human_pose_estimation@@V?$allocator@UHumanPose@human_pose_estimation@@@std@@@std@@CAXXZ
	?_Xlength@?$vector@UHumanPoseByPeaksIndices@human_pose_estimation@@V?$allocator@UHumanPoseByPeaksIndices@human_pose_estimation@@@std@@@std@@CAXXZ
	?_Xlength@?$vector@UPeak@human_pose_estimation@@V?$allocator@UPeak@human_pose_estimation@@@std@@@std@@CAXXZ
	?_Xlength@?$vector@UTwoJointsConnection@human_pose_estimation@@V?$allocator@UTwoJointsConnection@human_pose_estimation@@@std@@@std@@CAXXZ
	?_Xlength@?$vector@V?$Point3_@M@cv@@V?$allocator@V?$Point3_@M@cv@@@std@@@std@@CAXXZ
	?_Xlength@?$vector@V?$Point_@H@cv@@V?$allocator@V?$Point_@H@cv@@@std@@@std@@CAXXZ
	?_Xlength@?$vector@V?$vector@UPeak@human_pose_estimation@@V?$allocator@UPeak@human_pose_estimation@@@std@@@std@@V?$allocator@V?$vector@UPeak@human_pose_estimation@@V?$allocator@UPeak@human_pose_estimation@@@std@@@std@@@2@@std@@CAXXZ
	?_Xlength@?$vector@VMat@cv@@V?$allocator@VMat@cv@@@std@@@std@@CAXXZ
	?allocate@?$allocator@H@std@@QEAAPEAH_K@Z
	?allocate@?$allocator@UHumanPoseByPeaksIndices@human_pose_estimation@@@std@@QEAAPEAUHumanPoseByPeaksIndices@human_pose_estimation@@_K@Z
	?allocate@?$allocator@UPeak@human_pose_estimation@@@std@@QEAAPEAUPeak@human_pose_estimation@@_K@Z
	?assign@?$basic_string@DU?$char_traits@D@std@@V?$allocator@D@2@@std@@QEAAAEAV12@QEBD_K@Z
	?deallocate@?$allocator@UHumanPose@human_pose_estimation@@@std@@QEAAXQEAUHumanPose@human_pose_estimation@@_K@Z
	?deallocate@?$allocator@UHumanPoseByPeaksIndices@human_pose_estimation@@@std@@QEAAXQEAUHumanPoseByPeaksIndices@human_pose_estimation@@_K@Z
	?deallocate@?$allocator@UPeak@human_pose_estimation@@@std@@QEAAXQEAUPeak@human_pose_estimation@@_K@Z
	?deallocate@?$allocator@UTwoJointsConnection@human_pose_estimation@@@std@@QEAAXQEAUTwoJointsConnection@human_pose_estimation@@_K@Z
	?deallocate@?$allocator@V?$Point_@H@cv@@@std@@QEAAXQEAV?$Point_@H@cv@@_K@Z
	?extractPoses@human_pose_estimation@@YA?AV?$vector@UHumanPose@human_pose_estimation@@V?$allocator@UHumanPose@human_pose_estimation@@@std@@@std@@AEAV?$vector@VMat@cv@@V?$allocator@VMat@cv@@@std@@@3@0H@Z
	?findPeaks@human_pose_estimation@@YAXAEBV?$vector@VMat@cv@@V?$allocator@VMat@cv@@@std@@@std@@MAEAV?$vector@V?$vector@UPeak@human_pose_estimation@@V?$allocator@UPeak@human_pose_estimation@@@std@@@std@@V?$allocator@V?$vector@UPeak@human_pose_estimation@@V?$allocator@UPeak@human_pose_estimation@@@std@@@std@@@2@@3@H@Z
	?groupPeaksToPoses@human_pose_estimation@@YA?AV?$vector@UHumanPose@human_pose_estimation@@V?$allocator@UHumanPose@human_pose_estimation@@@std@@@std@@AEBV?$vector@V?$vector@UPeak@human_pose_estimation@@V?$allocator@UPeak@human_pose_estimation@@@std@@@std@@V?$allocator@V?$vector@UPeak@human_pose_estimation@@V?$allocator@UPeak@human_pose_estimation@@@std@@@std@@@2@@3@AEBV?$vector@VMat@cv@@V?$allocator@VMat@cv@@@std@@@3@_KMMHM@Z
	?release@Mat@cv@@QEAAXXZ
	?what@exception@std@@UEBAPEBDXZ
	PyInit_pose_extractor
